(dp1
S'events'
p2
(dp3
S'length'
p4
I512
sS'unique'
p5
I00
sS'sortable'
p6
I4
sS'sql'
p7
S'TEXT'
p8
sS'notnull'
p9
I00
sS'type'
p10
S'list:reference events'
p11
ssS'tags'
p12
(dp13
g4
I512
sg5
I00
sg6
I3
sg7
g8
sg9
I00
sg10
S'list:reference tag'
p14
ssS'id'
p15
(dp16
g4
I512
sg5
I00
sg6
I1
sg7
S'INTEGER PRIMARY KEY AUTOINCREMENT'
p17
sg9
I00
sg10
g15
ssS'name'
p18
(dp19
g4
I512
sg5
I00
sg6
I2
sg7
S'CHAR(512)'
p20
sg9
I00
sg10
S'string'
p21
ss.